target datalayout = "e-m:e-p270:32:32-p271:32:32-p272:64:64-i64:64-i128:128-f80:128-n8:16:32:64-S128"
target triple = "x86_64-pc-linux-gnu"

; Function Attrs: nounwind uwtable
define ptr @newBandMat(i64 noundef %0, i64 noundef %1, i64 noundef %2) #0 {
  %4 = alloca ptr, align 8
  %5 = alloca i64, align 8
  %6 = alloca i64, align 8
  %7 = alloca i64, align 8
  %8 = alloca ptr, align 8
  %9 = alloca i64, align 8
  %10 = alloca i64, align 8
  %11 = alloca i32, align 4
  store i64 %0, ptr %5, align 8, !tbaa !3
  store i64 %1, ptr %6, align 8, !tbaa !3
  store i64 %2, ptr %7, align 8, !tbaa !3
  call void @llvm.lifetime.start.p0(i64 8, ptr %8) #5
  call void @llvm.lifetime.start.p0(i64 8, ptr %9) #5
  call void @llvm.lifetime.start.p0(i64 8, ptr %10) #5
  %12 = load i64, ptr %5, align 8, !tbaa !3
  %13 = icmp sle i64 %12, 0
  br i1 %13, label %14, label %15

14:                                               ; preds = %3
  store ptr null, ptr %4, align 8
  store i32 1, ptr %11, align 4
  br label %63

15:                                               ; preds = %3
  store ptr null, ptr %8, align 8, !tbaa !24
  %16 = load i64, ptr %5, align 8, !tbaa !3
  %17 = mul i64 %16, 8
  %18 = call noalias ptr @malloc(i64 noundef %17) #6
  store ptr %18, ptr %8, align 8, !tbaa !24
  %19 = load ptr, ptr %8, align 8, !tbaa !24
  %20 = icmp eq ptr %19, null
  br i1 %20, label %21, label %22

21:                                               ; preds = %15
  store ptr null, ptr %4, align 8
  store i32 1, ptr %11, align 4
  br label %63

22:                                               ; preds = %15
  %23 = load i64, ptr %6, align 8, !tbaa !3
  %24 = load i64, ptr %7, align 8, !tbaa !3
  %25 = add nsw i64 %23, %24
  %26 = add nsw i64 %25, 1
  store i64 %26, ptr %10, align 8, !tbaa !3
  %27 = load ptr, ptr %8, align 8, !tbaa !24
  %28 = getelementptr inbounds ptr, ptr %27, i64 0
  store ptr null, ptr %28, align 8, !tbaa !16
  %29 = load i64, ptr %5, align 8, !tbaa !3
  %30 = load i64, ptr %10, align 8, !tbaa !3
  %31 = mul nsw i64 %29, %30
  %32 = mul i64 %31, 8
  %33 = call noalias ptr @malloc(i64 noundef %32) #6
  %34 = load ptr, ptr %8, align 8, !tbaa !24
  %35 = getelementptr inbounds ptr, ptr %34, i64 0
  store ptr %33, ptr %35, align 8, !tbaa !16
  %36 = load ptr, ptr %8, align 8, !tbaa !24
  %37 = getelementptr inbounds ptr, ptr %36, i64 0
  %38 = load ptr, ptr %37, align 8, !tbaa !16
  %39 = icmp eq ptr %38, null
  br i1 %39, label %40, label %42

40:                                               ; preds = %22
  %41 = load ptr, ptr %8, align 8, !tbaa !24
  call void @free(ptr noundef %41) #5
  store ptr null, ptr %8, align 8, !tbaa !24
  store ptr null, ptr %4, align 8
  store i32 1, ptr %11, align 4
  br label %63

42:                                               ; preds = %22
  store i64 1, ptr %9, align 8, !tbaa !3
  br label %43

43:                                               ; preds = %58, %42
  %44 = load i64, ptr %9, align 8, !tbaa !3
  %45 = load i64, ptr %5, align 8, !tbaa !3
  %46 = icmp slt i64 %44, %45
  br i1 %46, label %47, label %61

47:                                               ; preds = %43
  %48 = load ptr, ptr %8, align 8, !tbaa !24
  %49 = getelementptr inbounds ptr, ptr %48, i64 0
  %50 = load ptr, ptr %49, align 8, !tbaa !16
  %51 = load i64, ptr %9, align 8, !tbaa !3
  %52 = load i64, ptr %10, align 8, !tbaa !3
  %53 = mul nsw i64 %51, %52
  %54 = getelementptr inbounds double, ptr %50, i64 %53
  %55 = load ptr, ptr %8, align 8, !tbaa !24
  %56 = load i64, ptr %9, align 8, !tbaa !3
  %57 = getelementptr inbounds ptr, ptr %55, i64 %56
  store ptr %54, ptr %57, align 8, !tbaa !16
  br label %58

58:                                               ; preds = %47
  %59 = load i64, ptr %9, align 8, !tbaa !3
  %60 = add nsw i64 %59, 1
  store i64 %60, ptr %9, align 8, !tbaa !3
  br label %43, !llvm.loop !30

61:                                               ; preds = %43
  %62 = load ptr, ptr %8, align 8, !tbaa !24
  store ptr %62, ptr %4, align 8
  store i32 1, ptr %11, align 4
  br label %63

63:                                               ; preds = %61, %40, %21, %14
  call void @llvm.lifetime.end.p0(i64 8, ptr %10) #5
  call void @llvm.lifetime.end.p0(i64 8, ptr %9) #5
  call void @llvm.lifetime.end.p0(i64 8, ptr %8) #5
  %64 = load ptr, ptr %4, align 8
  ret ptr %64
}