; Function Attrs: nounwind memory(readwrite, argmem: none) uwtable
define noalias noundef ptr @newBandMat(i64 noundef %0, i64 noundef %1, i64 noundef %2) local_unnamed_addr #0 {
  %4 = icmp slt i64 %0, 1
  br i1 %4, label %.loopexit, label %5

5:                                                ; preds = %3
  %6 = shl i64 %0, 3
  %7 = tail call noalias ptr @malloc(i64 noundef %6) #12
  %8 = icmp eq ptr %7, null
  br i1 %8, label %.loopexit, label %9

9:                                                ; preds = %5
  %10 = add i64 %1, 1
  %11 = add i64 %10, %2
  %12 = mul i64 %6, %11
  %13 = tail call noalias ptr @malloc(i64 noundef %12) #12
  store ptr %13, ptr %7, align 8, !tbaa !13
  %14 = icmp eq ptr %13, null
  br i1 %14, label %15, label %.preheader

.preheader:                                       ; preds = %9
  %.not = icmp eq i64 %0, 1
  br i1 %.not, label %.loopexit, label %.lr.ph

15:                                               ; preds = %9
  tail call void @free(ptr noundef nonnull %7) #13
  br label %.loopexit

.lr.ph:                                           ; preds = %.preheader, %.lr.ph
  %.02023 = phi i64 [ %19, %.lr.ph ], [ 1, %.preheader ]
  %16 = mul nsw i64 %.02023, %11
  %17 = getelementptr inbounds double, ptr %13, i64 %16
  %18 = getelementptr inbounds nuw ptr, ptr %7, i64 %.02023
  store ptr %17, ptr %18, align 8, !tbaa !13
  %19 = add nuw nsw i64 %.02023, 1
  %exitcond.not = icmp eq i64 %19, %0
  br i1 %exitcond.not, label %.loopexit, label %.lr.ph, !llvm.loop !26

.loopexit:                                        ; preds = %.lr.ph, %.preheader, %5, %3, %15
  %.0 = phi ptr [ null, %15 ], [ null, %3 ], [ null, %5 ], [ %7, %.preheader ], [ %7, %.lr.ph ]
  ret ptr %.0
}